target datalayout = "e-m:e-p270:32:32-p271:32:32-p272:64:64-i64:64-i128:128-f80:128-n8:16:32:64-S128"
target triple = "x86_64-pc-linux-gnu"

%struct.FFDemuxSubtitlesQueue = type { ptr, i32, i32, i32, i32, i32 }
%struct.AVPacket = type { ptr, i64, i64, ptr, i32, i32, i32, ptr, i32, i64, i64, ptr, ptr, %struct.AVRational }
%struct.AVRational = type { i32, i32 }
%struct.AVFormatContext = type { ptr, ptr, ptr, ptr, ptr, i32, i32, ptr, i32, ptr, i32, ptr, ptr, i64, i64, i64, i32, i32, i32, i64, i64, ptr, i32, i32, ptr, i32, i32, i32, i32, ptr, i64, i32, i32, %struct.AVIOInterruptCB, i32, i32, i32, i32, i64, i32, i32, i32, i32, i32, i32, i32, i32, i32, i32, i32, i32, i64, i32, i32, i32, i32, i32, ptr, ptr, ptr, ptr, i32, ptr, ptr, ptr, ptr, i32, ptr, ptr, i64, ptr, ptr, ptr, i64 }
%struct.AVIOInterruptCB = type { ptr, ptr }

; Function Attrs: nounwind uwtable
define i32 @ff_subtitles_queue_read_packet(ptr noundef %0, ptr noundef %1) #0 {
  %3 = alloca i32, align 4
  %4 = alloca ptr, align 8
  %5 = alloca ptr, align 8
  %6 = alloca ptr, align 8
  %7 = alloca i32, align 4
  %8 = alloca i32, align 4
  store ptr %0, ptr %4, align 8, !tbaa !4
  store ptr %1, ptr %5, align 8, !tbaa !34
  call void @llvm.lifetime.start.p0(i64 8, ptr %6) #9
  call void @llvm.lifetime.start.p0(i64 4, ptr %7) #9
  %9 = load ptr, ptr %4, align 8, !tbaa !4
  %10 = getelementptr inbounds nuw %struct.FFDemuxSubtitlesQueue, ptr %9, i32 0, i32 3
  %11 = load i32, ptr %10, align 8, !tbaa !59
  %12 = load ptr, ptr %4, align 8, !tbaa !4
  %13 = getelementptr inbounds nuw %struct.FFDemuxSubtitlesQueue, ptr %12, i32 0, i32 1
  %14 = load i32, ptr %13, align 8, !tbaa !29
  %15 = icmp eq i32 %11, %14
  br i1 %15, label %16, label %17

16:                                               ; preds = %2
  store i32 -541478725, ptr %3, align 4
  store i32 1, ptr %8, align 4
  br label %43

17:                                               ; preds = %2
  %18 = load ptr, ptr %4, align 8, !tbaa !4
  %19 = getelementptr inbounds nuw %struct.FFDemuxSubtitlesQueue, ptr %18, i32 0, i32 0
  %20 = load ptr, ptr %19, align 8, !tbaa !33
  %21 = load ptr, ptr %4, align 8, !tbaa !4
  %22 = getelementptr inbounds nuw %struct.FFDemuxSubtitlesQueue, ptr %21, i32 0, i32 3
  %23 = load i32, ptr %22, align 8, !tbaa !59
  %24 = sext i32 %23 to i64
  %25 = getelementptr inbounds ptr, ptr %20, i64 %24
  %26 = load ptr, ptr %25, align 8, !tbaa !34
  store ptr %26, ptr %6, align 8, !tbaa !34
  %27 = load ptr, ptr %5, align 8, !tbaa !34
  %28 = load ptr, ptr %6, align 8, !tbaa !34
  %29 = call i32 @av_packet_ref(ptr noundef %27, ptr noundef %28)
  store i32 %29, ptr %7, align 4, !tbaa !21
  %30 = icmp slt i32 %29, 0
  br i1 %30, label %31, label %33

31:                                               ; preds = %17
  %32 = load i32, ptr %7, align 4, !tbaa !21
  store i32 %32, ptr %3, align 4
  store i32 1, ptr %8, align 4
  br label %43

33:                                               ; preds = %17
  %34 = load ptr, ptr %5, align 8, !tbaa !34
  %35 = getelementptr inbounds nuw %struct.AVPacket, ptr %34, i32 0, i32 1
  %36 = load i64, ptr %35, align 8, !tbaa !45
  %37 = load ptr, ptr %5, align 8, !tbaa !34
  %38 = getelementptr inbounds nuw %struct.AVPacket, ptr %37, i32 0, i32 2
  store i64 %36, ptr %38, align 8, !tbaa !44
  %39 = load ptr, ptr %4, align 8, !tbaa !4
  %40 = getelementptr inbounds nuw %struct.FFDemuxSubtitlesQueue, ptr %39, i32 0, i32 3
  %41 = load i32, ptr %40, align 8, !tbaa !59
  %42 = add nsw i32 %41, 1
  store i32 %42, ptr %40, align 8, !tbaa !59
  store i32 0, ptr %3, align 4
  store i32 1, ptr %8, align 4
  br label %43

43:                                               ; preds = %33, %31, %16
  call void @llvm.lifetime.end.p0(i64 4, ptr %7) #9
  call void @llvm.lifetime.end.p0(i64 8, ptr %6) #9
  %44 = load i32, ptr %3, align 4
  ret i32 %44
}

; Function Attrs: nounwind uwtable
define i32 @ff_subtitles_read_packet(ptr noundef %0, ptr noundef %1) #0 {
  %3 = alloca ptr, align 8
  %4 = alloca ptr, align 8
  %5 = alloca ptr, align 8
  store ptr %0, ptr %3, align 8, !tbaa !60
  store ptr %1, ptr %4, align 8, !tbaa !34
  call void @llvm.lifetime.start.p0(i64 8, ptr %5) #9
  %6 = load ptr, ptr %3, align 8, !tbaa !60
  %7 = getelementptr inbounds nuw %struct.AVFormatContext, ptr %6, i32 0, i32 3
  %8 = load ptr, ptr %7, align 8, !tbaa !68
  store ptr %8, ptr %5, align 8, !tbaa !4
  %9 = load ptr, ptr %5, align 8, !tbaa !4
  %10 = load ptr, ptr %4, align 8, !tbaa !34
  %11 = call i32 @ff_subtitles_queue_read_packet(ptr noundef %9, ptr noundef %10)
  call void @llvm.lifetime.end.p0(i64 8, ptr %5) #9
  ret i32 %11
}