; Function Attrs: nounwind uwtable
define range(i32 -2147483648, 1) i32 @ff_subtitles_read_packet(ptr noundef readonly captures(none) %0, ptr noundef %1) local_unnamed_addr #0 {
  %3 = getelementptr inbounds nuw i8, ptr %0, i64 24
  %4 = load ptr, ptr %3, align 8, !tbaa !55
  %5 = getelementptr inbounds nuw i8, ptr %4, i64 16
  %6 = load i32, ptr %5, align 8, !tbaa !49
  %7 = getelementptr inbounds nuw i8, ptr %4, i64 8
  %8 = load i32, ptr %7, align 8, !tbaa !23
  %9 = icmp eq i32 %6, %8
  br i1 %9, label %ff_subtitles_queue_read_packet.exit, label %10

10:                                               ; preds = %2
  %11 = load ptr, ptr %4, align 8, !tbaa !27
  %12 = sext i32 %6 to i64
  %13 = getelementptr inbounds ptr, ptr %11, i64 %12
  %14 = load ptr, ptr %13, align 8, !tbaa !28
  %15 = tail call i32 @av_packet_ref(ptr noundef %1, ptr noundef %14) #11
  %16 = icmp slt i32 %15, 0
  br i1 %16, label %ff_subtitles_queue_read_packet.exit, label %17

17:                                               ; preds = %10
  %18 = getelementptr inbounds nuw i8, ptr %1, i64 8
  %19 = load i64, ptr %18, align 8, !tbaa !43
  %20 = getelementptr inbounds nuw i8, ptr %1, i64 16
  store i64 %19, ptr %20, align 8, !tbaa !50
  %21 = load i32, ptr %5, align 8, !tbaa !49
  %22 = add nsw i32 %21, 1
  store i32 %22, ptr %5, align 8, !tbaa !49
  br label %ff_subtitles_queue_read_packet.exit

ff_subtitles_queue_read_packet.exit:              ; preds = %2, %10, %17
  %.0.i = phi i32 [ 0, %17 ], [ -541478725, %2 ], [ %15, %10 ]
  ret i32 %.0.i
}